target datalayout = "e-m:e-p270:32:32-p271:32:32-p272:64:64-i64:64-i128:128-f80:128-n8:16:32:64-S128"
target triple = "x86_64-pc-linux-gnu"

%struct.filter_prov_globals_st = type { ptr, ptr, [10 x %struct.anon], i32, i32, i64, i32 }
%struct.anon = type { i32, [6 x %struct.ossl_algorithm_st] }
%struct.ossl_algorithm_st = type { ptr, ptr, ptr, ptr }

@ourglobals = internal global %struct.filter_prov_globals_st zeroinitializer, align 8
@.str.1 = private unnamed_addr constant [29 x i8] c"../openssl/test/filterprov.c\00", align 1
@.str.3 = private unnamed_addr constant [19 x i8] c"globs->query_count\00", align 1
@.str.4 = private unnamed_addr constant [2 x i8] c"0\00", align 1

; Function Attrs: nounwind uwtable
define internal ptr @get_globals() #0 {
  ret ptr @ourglobals
}

; Function Attrs: nounwind uwtable
define dso_local i32 @filter_provider_check_clean_finish() #0 {
  %1 = alloca ptr, align 8
  call void @llvm.lifetime.start.p0(i64 8, ptr %1) #7
  %2 = call ptr @get_globals()
  store ptr %2, ptr %1, align 8, !tbaa !31
  %3 = load ptr, ptr %1, align 8, !tbaa !31
  %4 = getelementptr inbounds nuw %struct.filter_prov_globals_st, ptr %3, i32 0, i32 5
  %5 = load i64, ptr %4, align 8, !tbaa !46
  %6 = call i32 @test_ulong_eq(ptr noundef @.str.1, i32 noundef 276, ptr noundef @.str.3, ptr noundef @.str.4, i64 noundef %5, i64 noundef 0)
  %7 = icmp ne i32 %6, 0
  br i1 %7, label %8, label %14

8:                                                ; preds = %0
  %9 = load ptr, ptr %1, align 8, !tbaa !31
  %10 = getelementptr inbounds nuw %struct.filter_prov_globals_st, ptr %9, i32 0, i32 6
  %11 = load i32, ptr %10, align 8, !tbaa !47
  %12 = icmp ne i32 %11, 0
  %13 = xor i1 %12, true
  br label %14

14:                                               ; preds = %8, %0
  %15 = phi i1 [ false, %0 ], [ %13, %8 ]
  %16 = zext i1 %15 to i32
  call void @llvm.lifetime.end.p0(i64 8, ptr %1) #7
  ret i32 %16
}