; Function Attrs: nounwind uwtable
define dso_local range(i32 0, 2) i32 @filter_provider_check_clean_finish() local_unnamed_addr #0 {
  %1 = load i64, ptr getelementptr inbounds nuw (i8, ptr @ourglobals, i64 2024), align 8, !tbaa !35
  %2 = tail call i32 @test_ulong_eq(ptr noundef nonnull @.str.1, i32 noundef 276, ptr noundef nonnull @.str.3, ptr noundef nonnull @.str.4, i64 noundef %1, i64 noundef 0) #7
  %.not = icmp ne i32 %2, 0
  %3 = load i32, ptr getelementptr inbounds nuw (i8, ptr @ourglobals, i64 2032), align 8
  %.not2 = icmp eq i32 %3, 0
  %narrow = select i1 %.not, i1 %.not2, i1 false
  %4 = zext i1 %narrow to i32
  ret i32 %4
}